target datalayout = "e-m:e-p270:32:32-p271:32:32-p272:64:64-i64:64-i128:128-f80:128-n8:16:32:64-S128"
target triple = "x86_64-pc-linux-gnu"

%struct.PJconsts = type <{ ptr, ptr, ptr, ptr, ptr, ptr, ptr, ptr, ptr, ptr, ptr, ptr, i32, [4 x i8], ptr, ptr, ptr, ptr, ptr, ptr, ptr, ptr, double, double, double, double, double, double, double, double, double, double, double, double, double, double, double, double, double, double, double, double, double, double, i32, i32, i32, i32, i32, i32, i32, i32, i32, i32, i32, [4 x i8], ptr, ptr, ptr, ptr, ptr, ptr, double, double, double, double, double, double, double, double, double, double, double, i32, [4 x i8], [7 x double], i32, [4 x i8], ptr, ptr, double, double, i32, [4 x i8], %"class.std::shared_ptr", i8, [7 x i8], double, i8, [7 x i8], %"class.std::__cxx11::basic_string", %"class.std::__cxx11::basic_string", %"class.std::__cxx11::basic_string", i8, [7 x i8], %"class.std::vector", i32, [4 x i8], %"class.std::vector.6", i32, i8, i8, i8, i8 }>
%"class.std::shared_ptr" = type { %"class.std::__shared_ptr" }
%"class.std::__shared_ptr" = type { ptr, %"class.std::__shared_count" }
%"class.std::__shared_count" = type { ptr }
%"class.std::__cxx11::basic_string" = type { %"struct.std::__cxx11::basic_string<char>::_Alloc_hider", i64, %union.anon }
%"struct.std::__cxx11::basic_string<char>::_Alloc_hider" = type { ptr }
%union.anon = type { i64, [8 x i8] }
%"class.std::vector" = type { %"struct.std::_Vector_base" }
%"struct.std::_Vector_base" = type { %"struct.std::_Vector_base<osgeo::proj::operation::GridDescription, std::allocator<osgeo::proj::operation::GridDescription>>::_Vector_impl" }
%"struct.std::_Vector_base<osgeo::proj::operation::GridDescription, std::allocator<osgeo::proj::operation::GridDescription>>::_Vector_impl" = type { %"struct.std::_Vector_base<osgeo::proj::operation::GridDescription, std::allocator<osgeo::proj::operation::GridDescription>>::_Vector_impl_data" }
%"struct.std::_Vector_base<osgeo::proj::operation::GridDescription, std::allocator<osgeo::proj::operation::GridDescription>>::_Vector_impl_data" = type { ptr, ptr, ptr }
%"class.std::vector.6" = type { %"struct.std::_Vector_base.7" }
%"struct.std::_Vector_base.7" = type { %"struct.std::_Vector_base<PJCoordOperation, std::allocator<PJCoordOperation>>::_Vector_impl" }
%"struct.std::_Vector_base<PJCoordOperation, std::allocator<PJCoordOperation>>::_Vector_impl" = type { %"struct.std::_Vector_base<PJCoordOperation, std::allocator<PJCoordOperation>>::_Vector_impl_data" }
%"struct.std::_Vector_base<PJCoordOperation, std::allocator<PJCoordOperation>>::_Vector_impl_data" = type { ptr, ptr, ptr }
%"class.std::vector.11" = type { %"struct.std::_Vector_base.12" }
%"struct.std::_Vector_base.12" = type { %"struct.std::_Vector_base<std::unique_ptr<osgeo::proj::HorizontalShiftGridSet>, std::allocator<std::unique_ptr<osgeo::proj::HorizontalShiftGridSet>>>::_Vector_impl" }
%"struct.std::_Vector_base<std::unique_ptr<osgeo::proj::HorizontalShiftGridSet>, std::allocator<std::unique_ptr<osgeo::proj::HorizontalShiftGridSet>>>::_Vector_impl" = type { %"struct.std::_Vector_base<std::unique_ptr<osgeo::proj::HorizontalShiftGridSet>, std::allocator<std::unique_ptr<osgeo::proj::HorizontalShiftGridSet>>>::_Vector_impl_data" }
%"struct.std::_Vector_base<std::unique_ptr<osgeo::proj::HorizontalShiftGridSet>, std::allocator<std::unique_ptr<osgeo::proj::HorizontalShiftGridSet>>>::_Vector_impl_data" = type { ptr, ptr, ptr }
%"struct.(anonymous namespace)::hgridshiftData" = type <{ double, double, %"class.std::vector.11", i8, [7 x i8] }>
%struct.PJ_XYZ = type { double, double, double }
%struct.PJ_LPZ = type { double, double, double }
%struct.PJ_LPZT = type { double, double, double, double }

; Function Attrs: mustprogress uwtable
define internal void @_ZL24pj_hgridshift_forward_4dR8PJ_COORDP8PJconsts(ptr noundef nonnull align 8 dereferenceable(32) %0, ptr noundef %1) #4 {
  %3 = alloca ptr, align 8
  %4 = alloca ptr, align 8
  %5 = alloca ptr, align 8
  %6 = alloca %struct.PJ_XYZ, align 8
  %7 = alloca %struct.PJ_LPZ, align 8
  %8 = alloca %struct.PJ_XYZ, align 8
  %9 = alloca %struct.PJ_LPZ, align 8
  store ptr %0, ptr %3, align 8
  store ptr %1, ptr %4, align 8
  %10 = load ptr, ptr %4, align 8
  %11 = getelementptr inbounds %struct.PJconsts, ptr %10, i32 0, i32 11
  %12 = load ptr, ptr %11, align 8
  store ptr %12, ptr %5, align 8
  %13 = load ptr, ptr %5, align 8
  %14 = getelementptr inbounds %"struct.(anonymous namespace)::hgridshiftData", ptr %13, i32 0, i32 0
  %15 = load double, ptr %14, align 8
  %16 = fcmp oeq double %15, 0.000000e+00
  br i1 %16, label %22, label %17

17:                                               ; preds = %2
  %18 = load ptr, ptr %5, align 8
  %19 = getelementptr inbounds %"struct.(anonymous namespace)::hgridshiftData", ptr %18, i32 0, i32 1
  %20 = load double, ptr %19, align 8
  %21 = fcmp oeq double %20, 0.000000e+00
  br i1 %21, label %22, label %26

22:                                               ; preds = %17, %2
  %23 = load ptr, ptr %3, align 8
  call void @llvm.memcpy.p0.p0.i64(ptr align 8 %7, ptr align 8 %23, i64 24, i1 false)
  %24 = load ptr, ptr %4, align 8
  call void @_ZL24pj_hgridshift_forward_3d6PJ_LPZP8PJconsts(ptr dead_on_unwind writable sret(%struct.PJ_XYZ) align 8 %6, ptr noundef byval(%struct.PJ_LPZ) align 8 %7, ptr noundef %24)
  %25 = load ptr, ptr %3, align 8
  call void @llvm.memcpy.p0.p0.i64(ptr align 8 %25, ptr align 8 %6, i64 24, i1 false)
  br label %46

26:                                               ; preds = %17
  %27 = load ptr, ptr %3, align 8
  %28 = getelementptr inbounds %struct.PJ_LPZT, ptr %27, i32 0, i32 3
  %29 = load double, ptr %28, align 8
  %30 = load ptr, ptr %5, align 8
  %31 = getelementptr inbounds %"struct.(anonymous namespace)::hgridshiftData", ptr %30, i32 0, i32 1
  %32 = load double, ptr %31, align 8
  %33 = fcmp olt double %29, %32
  br i1 %33, label %34, label %46

34:                                               ; preds = %26
  %35 = load ptr, ptr %5, align 8
  %36 = getelementptr inbounds %"struct.(anonymous namespace)::hgridshiftData", ptr %35, i32 0, i32 0
  %37 = load double, ptr %36, align 8
  %38 = load ptr, ptr %5, align 8
  %39 = getelementptr inbounds %"struct.(anonymous namespace)::hgridshiftData", ptr %38, i32 0, i32 1
  %40 = load double, ptr %39, align 8
  %41 = fcmp ogt double %37, %40
  br i1 %41, label %42, label %46

42:                                               ; preds = %34
  %43 = load ptr, ptr %3, align 8
  call void @llvm.memcpy.p0.p0.i64(ptr align 8 %9, ptr align 8 %43, i64 24, i1 false)
  %44 = load ptr, ptr %4, align 8
  call void @_ZL24pj_hgridshift_forward_3d6PJ_LPZP8PJconsts(ptr dead_on_unwind writable sret(%struct.PJ_XYZ) align 8 %8, ptr noundef byval(%struct.PJ_LPZ) align 8 %9, ptr noundef %44)
  %45 = load ptr, ptr %3, align 8
  call void @llvm.memcpy.p0.p0.i64(ptr align 8 %45, ptr align 8 %8, i64 24, i1 false)
  br label %46

46:                                               ; preds = %42, %34, %26, %22
  ret void
}